; Function Attrs: mustprogress nounwind uwtable
define hidden noundef i64 @_ZN16EpsilonArguments31conservative_max_heap_alignmentEv(ptr nocapture nonnull readnone align 8 %0) unnamed_addr #0 align 2 {
  %2 = load i8, ptr @UseLargePages, align 1
  %3 = trunc i8 %2 to i1
  br i1 %3, label %4, label %6

4:                                                ; preds = %1
  %5 = tail call noundef i64 @_ZN2os15large_page_sizeEv() #5
  br label %8

6:                                                ; preds = %1
  %7 = load i64, ptr @_ZN6OSInfo13_vm_page_sizeE, align 8
  br label %8

8:                                                ; preds = %6, %4
  %9 = phi i64 [ %5, %4 ], [ %7, %6 ]
  ret i64 %9
}